; Function Attrs: mustprogress uwtable
define dso_local void @_ZN4absl12log_internal17ScopedMinLogLevelC2ENS_18LogSeverityAtLeastE(ptr noundef nonnull writeonly align 4 captures(none) dereferenceable(4) initializes((0, 4)) %0, i32 noundef %1) unnamed_addr #1 align 2 {
  %3 = load atomic i32, ptr @_ZN4absl12_GLOBAL__N_113min_log_levelE.0 acquire, align 4
  store i32 %3, ptr %0, align 4, !tbaa !11
  store atomic i32 %1, ptr @_ZN4absl12_GLOBAL__N_113min_log_levelE.0 release, align 4
  %4 = load atomic i64, ptr @_ZN4absl12_GLOBAL__N_124logging_globals_listenerE acquire, align 8
  %5 = icmp eq i64 %4, ptrtoint (ptr @_ZN4absl13base_internal10AtomicHookIPFvvEE13DummyFunctionEv to i64)
  %.not2.i.i = icmp eq i64 %4, 0
  %.not.i.i = or i1 %5, %.not2.i.i
  br i1 %.not.i.i, label %_ZN4absl14SetMinLogLevelENS_18LogSeverityAtLeastE.exit, label %6

6:                                                ; preds = %2
  %.0.i.i.i.i.i.i = inttoptr i64 %4 to ptr
  tail call void %.0.i.i.i.i.i.i()
  br label %_ZN4absl14SetMinLogLevelENS_18LogSeverityAtLeastE.exit

_ZN4absl14SetMinLogLevelENS_18LogSeverityAtLeastE.exit: ; preds = %2, %6
  ret void
}